target datalayout = "e-m:e-p270:32:32-p271:32:32-p272:64:64-i64:64-i128:128-f80:128-n8:16:32:64-S128"
target triple = "x86_64-pc-linux-gnu"

%struct.Color = type { i8, i8, i8, i8 }
%struct.Image = type { ptr, i32, i32, i32, i32 }

; Function Attrs: nounwind uwtable
define void @GenImageColor(ptr dead_on_unwind noalias writable sret(%struct.Image) align 8 %0, i32 noundef %1, i32 noundef %2, i32 %3) #0 {
  %5 = alloca %struct.Color, align 1
  %6 = alloca i32, align 4
  %7 = alloca i32, align 4
  %8 = alloca ptr, align 8
  %9 = alloca i32, align 4
  store i32 %3, ptr %5, align 1
  store i32 %1, ptr %6, align 4
  store i32 %2, ptr %7, align 4
  call void @llvm.lifetime.start.p0(i64 8, ptr %8) #19
  %10 = load i32, ptr %6, align 4
  %11 = load i32, ptr %7, align 4
  %12 = mul nsw i32 %10, %11
  %13 = sext i32 %12 to i64
  %14 = call noalias ptr @calloc(i64 noundef %13, i64 noundef 4) #23
  store ptr %14, ptr %8, align 8
  call void @llvm.lifetime.start.p0(i64 4, ptr %9) #19
  store i32 0, ptr %9, align 4
  br label %15

15:                                               ; preds = %27, %4
  %16 = load i32, ptr %9, align 4
  %17 = load i32, ptr %6, align 4
  %18 = load i32, ptr %7, align 4
  %19 = mul nsw i32 %17, %18
  %20 = icmp slt i32 %16, %19
  br i1 %20, label %22, label %21

21:                                               ; preds = %15
  call void @llvm.lifetime.end.p0(i64 4, ptr %9) #19
  br label %30

22:                                               ; preds = %15
  %23 = load ptr, ptr %8, align 8
  %24 = load i32, ptr %9, align 4
  %25 = sext i32 %24 to i64
  %26 = getelementptr inbounds %struct.Color, ptr %23, i64 %25
  call void @llvm.memcpy.p0.p0.i64(ptr align 1 %26, ptr align 1 %5, i64 4, i1 false)
  br label %27

27:                                               ; preds = %22
  %28 = load i32, ptr %9, align 4
  %29 = add nsw i32 %28, 1
  store i32 %29, ptr %9, align 4
  br label %15

30:                                               ; preds = %21
  %31 = getelementptr inbounds nuw %struct.Image, ptr %0, i32 0, i32 0
  %32 = load ptr, ptr %8, align 8
  store ptr %32, ptr %31, align 8
  %33 = getelementptr inbounds nuw %struct.Image, ptr %0, i32 0, i32 1
  %34 = load i32, ptr %6, align 4
  store i32 %34, ptr %33, align 8
  %35 = getelementptr inbounds nuw %struct.Image, ptr %0, i32 0, i32 2
  %36 = load i32, ptr %7, align 4
  store i32 %36, ptr %35, align 4
  %37 = getelementptr inbounds nuw %struct.Image, ptr %0, i32 0, i32 3
  store i32 1, ptr %37, align 8
  %38 = getelementptr inbounds nuw %struct.Image, ptr %0, i32 0, i32 4
  store i32 7, ptr %38, align 4
  call void @llvm.lifetime.end.p0(i64 8, ptr %8) #19
  ret void
}