; Function Attrs: nofree nounwind memory(write, inaccessiblemem: readwrite) uwtable
define void @GenImageColor(ptr dead_on_unwind noalias writable writeonly sret(%struct.Image) align 8 captures(none) %0, i32 noundef %1, i32 noundef %2, i32 %3) local_unnamed_addr #29 {
  %5 = mul nsw i32 %2, %1
  %6 = sext i32 %5 to i64
  %7 = tail call noalias ptr @calloc(i64 noundef %6, i64 noundef 4) #58
  %8 = icmp sgt i32 %5, 0
  br i1 %8, label %.lr.ph.preheader, label %._crit_edge

.lr.ph.preheader:                                 ; preds = %4
  %wide.trip.count = zext nneg i32 %5 to i64
  br label %.lr.ph

._crit_edge:                                      ; preds = %.lr.ph, %4
  store ptr %7, ptr %0, align 8
  %9 = getelementptr inbounds nuw i8, ptr %0, i64 8
  store i32 %1, ptr %9, align 8
  %10 = getelementptr inbounds nuw i8, ptr %0, i64 12
  store i32 %2, ptr %10, align 4
  %11 = getelementptr inbounds nuw i8, ptr %0, i64 16
  store i32 1, ptr %11, align 8
  %12 = getelementptr inbounds nuw i8, ptr %0, i64 20
  store i32 7, ptr %12, align 4
  ret void

.lr.ph:                                           ; preds = %.lr.ph.preheader, %.lr.ph
  %indvars.iv = phi i64 [ 0, %.lr.ph.preheader ], [ %indvars.iv.next, %.lr.ph ]
  %13 = getelementptr inbounds nuw %struct.Color, ptr %7, i64 %indvars.iv
  store i32 %3, ptr %13, align 1
  %indvars.iv.next = add nuw nsw i64 %indvars.iv, 1
  %exitcond.not = icmp eq i64 %indvars.iv.next, %wide.trip.count
  br i1 %exitcond.not, label %._crit_edge, label %.lr.ph
}